; Function Attrs: nounwind sspstrong uwtable
define hidden i32 @rb_yjit_splat_varg_cfunc(ptr noundef %0) local_unnamed_addr #0 {
  %2 = load i64, ptr %0, align 8, !tbaa !15
  %3 = inttoptr i64 %2 to ptr
  %4 = load i64, ptr %3, align 8, !tbaa !11
  %5 = and i64 %4, 8192
  %.not.i = icmp eq i64 %5, 0
  br i1 %.not.i, label %10, label %6

6:                                                ; preds = %1
  %7 = lshr i64 %4, 15
  %8 = and i64 %7, 127
  %9 = getelementptr inbounds nuw i8, ptr %3, i64 16
  br label %rb_array_const_ptr.exit

10:                                               ; preds = %1
  %11 = getelementptr inbounds nuw i8, ptr %3, i64 16
  %12 = load i64, ptr %11, align 8, !tbaa !14
  %13 = getelementptr inbounds nuw i8, ptr %3, i64 32
  %14 = load ptr, ptr %13, align 8, !tbaa !14
  br label %rb_array_const_ptr.exit

rb_array_const_ptr.exit:                          ; preds = %6, %10
  %.0.i10 = phi i64 [ %8, %6 ], [ %12, %10 ]
  %.0.i6 = phi ptr [ %9, %6 ], [ %14, %10 ]
  %sext = shl i64 %.0.i10, 32
  %15 = ashr exact i64 %sext, 32
  %16 = icmp ugt i64 %15, 2305843009213693951
  br i1 %16, label %17, label %rbimpl_size_mul_or_raise.exit, !prof !113

17:                                               ; preds = %rb_array_const_ptr.exit
  tail call void @ruby_malloc_size_overflow(i64 noundef 8, i64 noundef range(i64 -2147483648, 2147483648) %15) #26
  unreachable

rbimpl_size_mul_or_raise.exit:                    ; preds = %rb_array_const_ptr.exit
  %.not.i7 = icmp eq i64 %sext, 0
  br i1 %.not.i7, label %ruby_nonempty_memcpy.exit, label %18

18:                                               ; preds = %rbimpl_size_mul_or_raise.exit
  %19 = ashr exact i64 %sext, 29
  tail call void @llvm.memcpy.p0.p0.i64(ptr noundef nonnull align 1 %0, ptr noundef nonnull readonly align 1 %.0.i6, i64 noundef range(i64 -17179869184, 17179869177) %19, i1 noundef false) #5
  br label %ruby_nonempty_memcpy.exit

ruby_nonempty_memcpy.exit:                        ; preds = %rbimpl_size_mul_or_raise.exit, %18
  %20 = trunc i64 %.0.i10 to i32
  ret i32 %20
}